target datalayout = "e-m:e-p270:32:32-p271:32:32-p272:64:64-i64:64-i128:128-f80:128-n8:16:32:64-S128"
target triple = "x86_64-pc-linux-gnu"

%struct.ctl_node_s = type { i8 }
%struct.ctl_named_node_s = type { %struct.ctl_node_s, ptr, i64, ptr, ptr }
%struct.ctl_indexed_node_s = type { %struct.ctl_node_s, ptr }

; Function Attrs: nounwind uwtable
define internal ptr @ctl_indexed_node(ptr noundef %0) #0 {
  %2 = alloca ptr, align 8
  store ptr %0, ptr %2, align 8, !tbaa !173
  %3 = load ptr, ptr %2, align 8, !tbaa !173
  %4 = getelementptr inbounds nuw %struct.ctl_node_s, ptr %3, i32 0, i32 0
  %5 = load i8, ptr %4, align 1, !tbaa !174, !range !18, !noundef !19
  %6 = trunc i8 %5 to i1
  br i1 %6, label %9, label %7

7:                                                ; preds = %1
  %8 = load ptr, ptr %2, align 8, !tbaa !173
  br label %10

9:                                                ; preds = %1
  br label %10

10:                                               ; preds = %9, %7
  %11 = phi ptr [ %8, %7 ], [ null, %9 ]
  ret ptr %11
}

; Function Attrs: nounwind uwtable
define internal ptr @ctl_named_children(ptr noundef %0, i64 noundef %1) #0 {
  %3 = alloca ptr, align 8
  %4 = alloca i64, align 8
  %5 = alloca ptr, align 8
  store ptr %0, ptr %3, align 8, !tbaa !22
  store i64 %1, ptr %4, align 8, !tbaa !14
  call void @llvm.lifetime.start.p0(i64 8, ptr %5) #13
  %6 = load ptr, ptr %3, align 8, !tbaa !22
  %7 = getelementptr inbounds nuw %struct.ctl_named_node_s, ptr %6, i32 0, i32 3
  %8 = load ptr, ptr %7, align 8, !tbaa !48
  %9 = call ptr @ctl_named_node(ptr noundef %8)
  store ptr %9, ptr %5, align 8, !tbaa !22
  %10 = load ptr, ptr %5, align 8, !tbaa !22
  %11 = icmp ne ptr %10, null
  br i1 %11, label %12, label %16

12:                                               ; preds = %2
  %13 = load ptr, ptr %5, align 8, !tbaa !22
  %14 = load i64, ptr %4, align 8, !tbaa !14
  %15 = getelementptr inbounds nuw %struct.ctl_named_node_s, ptr %13, i64 %14
  br label %17

16:                                               ; preds = %2
  br label %17

17:                                               ; preds = %16, %12
  %18 = phi ptr [ %15, %12 ], [ null, %16 ]
  call void @llvm.lifetime.end.p0(i64 8, ptr %5) #13
  ret ptr %18
}

; Function Attrs: nounwind uwtable
define internal ptr @ctl_named_node(ptr noundef %0) #0 {
  %2 = alloca ptr, align 8
  store ptr %0, ptr %2, align 8, !tbaa !173
  %3 = load ptr, ptr %2, align 8, !tbaa !173
  %4 = getelementptr inbounds nuw %struct.ctl_node_s, ptr %3, i32 0, i32 0
  %5 = load i8, ptr %4, align 1, !tbaa !174, !range !18, !noundef !19
  %6 = trunc i8 %5 to i1
  br i1 %6, label %7, label %9

7:                                                ; preds = %1
  %8 = load ptr, ptr %2, align 8, !tbaa !173
  br label %10

9:                                                ; preds = %1
  br label %10

10:                                               ; preds = %9, %7
  %11 = phi ptr [ %8, %7 ], [ null, %9 ]
  ret ptr %11
}

; Function Attrs: nounwind uwtable
define internal i32 @ctl_lookup(ptr noundef %0, ptr noundef %1, ptr noundef %2, ptr noundef %3, ptr noundef %4, ptr noundef %5) #0 {
  %7 = alloca i32, align 4
  %8 = alloca ptr, align 8
  %9 = alloca ptr, align 8
  %10 = alloca ptr, align 8
  %11 = alloca ptr, align 8
  %12 = alloca ptr, align 8
  %13 = alloca ptr, align 8
  %14 = alloca i32, align 4
  %15 = alloca ptr, align 8
  %16 = alloca ptr, align 8
  %17 = alloca ptr, align 8
  %18 = alloca i64, align 8
  %19 = alloca i64, align 8
  %20 = alloca i64, align 8
  %21 = alloca ptr, align 8
  %22 = alloca ptr, align 8
  %23 = alloca ptr, align 8
  %24 = alloca i32, align 4
  %25 = alloca i64, align 8
  %26 = alloca ptr, align 8
  store ptr %0, ptr %8, align 8, !tbaa !28
  store ptr %1, ptr %9, align 8, !tbaa !22
  store ptr %2, ptr %10, align 8, !tbaa !9
  store ptr %3, ptr %11, align 8, !tbaa !46
  store ptr %4, ptr %12, align 8, !tbaa !12
  store ptr %5, ptr %13, align 8, !tbaa !12
  call void @llvm.lifetime.start.p0(i64 4, ptr %14) #13
  call void @llvm.lifetime.start.p0(i64 8, ptr %15) #13
  call void @llvm.lifetime.start.p0(i64 8, ptr %16) #13
  call void @llvm.lifetime.start.p0(i64 8, ptr %17) #13
  call void @llvm.lifetime.start.p0(i64 8, ptr %18) #13
  call void @llvm.lifetime.start.p0(i64 8, ptr %19) #13
  call void @llvm.lifetime.start.p0(i64 8, ptr %20) #13
  call void @llvm.lifetime.start.p0(i64 8, ptr %21) #13
  %27 = load ptr, ptr %10, align 8, !tbaa !9
  store ptr %27, ptr %15, align 8, !tbaa !9
  %28 = load ptr, ptr %15, align 8, !tbaa !9
  %29 = call ptr @strchr(ptr noundef %28, i32 noundef 46) #14
  store ptr %29, ptr %16, align 8, !tbaa !9
  %30 = icmp ne ptr %29, null
  br i1 %30, label %31, label %33

31:                                               ; preds = %6
  %32 = load ptr, ptr %16, align 8, !tbaa !9
  br label %36

33:                                               ; preds = %6
  %34 = load ptr, ptr %15, align 8, !tbaa !9
  %35 = call ptr @strchr(ptr noundef %34, i32 noundef 0) #14
  br label %36

36:                                               ; preds = %33, %31
  %37 = phi ptr [ %32, %31 ], [ %35, %33 ]
  store ptr %37, ptr %17, align 8, !tbaa !9
  %38 = load ptr, ptr %17, align 8, !tbaa !9
  %39 = ptrtoint ptr %38 to i64
  %40 = load ptr, ptr %15, align 8, !tbaa !9
  %41 = ptrtoint ptr %40 to i64
  %42 = sub i64 %39, %41
  store i64 %42, ptr %18, align 8, !tbaa !14
  %43 = load i64, ptr %18, align 8, !tbaa !14
  %44 = icmp eq i64 %43, 0
  br i1 %44, label %45, label %46

45:                                               ; preds = %36
  store i32 2, ptr %14, align 4, !tbaa !20
  br label %195

46:                                               ; preds = %36
  %47 = load ptr, ptr %9, align 8, !tbaa !22
  store ptr %47, ptr %21, align 8, !tbaa !22
  store i64 0, ptr %19, align 8, !tbaa !14
  br label %48

48:                                               ; preds = %185, %46
  %49 = load i64, ptr %19, align 8, !tbaa !14
  %50 = load ptr, ptr %13, align 8, !tbaa !12
  %51 = load i64, ptr %50, align 8, !tbaa !14
  %52 = icmp ult i64 %49, %51
  br i1 %52, label %53, label %188

53:                                               ; preds = %48
  br label %54

54:                                               ; preds = %53
  br label %55

55:                                               ; preds = %54
  br label %56

56:                                               ; preds = %55
  br label %57

57:                                               ; preds = %56
  br label %58

58:                                               ; preds = %57
  br label %59

59:                                               ; preds = %58
  %60 = load ptr, ptr %21, align 8, !tbaa !22
  %61 = getelementptr inbounds nuw %struct.ctl_named_node_s, ptr %60, i32 0, i32 3
  %62 = load ptr, ptr %61, align 8, !tbaa !48
  %63 = call ptr @ctl_named_node(ptr noundef %62)
  %64 = icmp ne ptr %63, null
  br i1 %64, label %65, label %113

65:                                               ; preds = %59
  call void @llvm.lifetime.start.p0(i64 8, ptr %22) #13
  %66 = load ptr, ptr %21, align 8, !tbaa !22
  store ptr %66, ptr %22, align 8, !tbaa !22
  store i64 0, ptr %20, align 8, !tbaa !14
  br label %67

67:                                               ; preds = %101, %65
  %68 = load i64, ptr %20, align 8, !tbaa !14
  %69 = load ptr, ptr %21, align 8, !tbaa !22
  %70 = getelementptr inbounds nuw %struct.ctl_named_node_s, ptr %69, i32 0, i32 2
  %71 = load i64, ptr %70, align 8, !tbaa !49
  %72 = icmp ult i64 %68, %71
  br i1 %72, label %73, label %104

73:                                               ; preds = %67
  call void @llvm.lifetime.start.p0(i64 8, ptr %23) #13
  %74 = load ptr, ptr %21, align 8, !tbaa !22
  %75 = load i64, ptr %20, align 8, !tbaa !14
  %76 = call ptr @ctl_named_children(ptr noundef %74, i64 noundef %75)
  store ptr %76, ptr %23, align 8, !tbaa !22
  %77 = load ptr, ptr %23, align 8, !tbaa !22
  %78 = getelementptr inbounds nuw %struct.ctl_named_node_s, ptr %77, i32 0, i32 1
  %79 = load ptr, ptr %78, align 8, !tbaa !50
  %80 = call i64 @strlen(ptr noundef %79) #14
  %81 = load i64, ptr %18, align 8, !tbaa !14
  %82 = icmp eq i64 %80, %81
  br i1 %82, label %83, label %97

83:                                               ; preds = %73
  %84 = load ptr, ptr %15, align 8, !tbaa !9
  %85 = load ptr, ptr %23, align 8, !tbaa !22
  %86 = getelementptr inbounds nuw %struct.ctl_named_node_s, ptr %85, i32 0, i32 1
  %87 = load ptr, ptr %86, align 8, !tbaa !50
  %88 = load i64, ptr %18, align 8, !tbaa !14
  %89 = call i32 @strncmp(ptr noundef %84, ptr noundef %87, i64 noundef %88) #14
  %90 = icmp eq i32 %89, 0
  br i1 %90, label %91, label %97

91:                                               ; preds = %83
  %92 = load ptr, ptr %23, align 8, !tbaa !22
  store ptr %92, ptr %21, align 8, !tbaa !22
  %93 = load i64, ptr %20, align 8, !tbaa !14
  %94 = load ptr, ptr %12, align 8, !tbaa !12
  %95 = load i64, ptr %19, align 8, !tbaa !14
  %96 = getelementptr inbounds nuw i64, ptr %94, i64 %95
  store i64 %93, ptr %96, align 8, !tbaa !14
  store i32 10, ptr %24, align 4
  br label %98

97:                                               ; preds = %83, %73
  store i32 0, ptr %24, align 4
  br label %98

98:                                               ; preds = %97, %91
  call void @llvm.lifetime.end.p0(i64 8, ptr %23) #13
  %99 = load i32, ptr %24, align 4
  switch i32 %99, label %199 [
    i32 0, label %100
    i32 10, label %104
  ]

100:                                              ; preds = %98
  br label %101

101:                                              ; preds = %100
  %102 = load i64, ptr %20, align 8, !tbaa !14
  %103 = add i64 %102, 1
  store i64 %103, ptr %20, align 8, !tbaa !14
  br label %67, !llvm.loop !51

104:                                              ; preds = %98, %67
  %105 = load ptr, ptr %21, align 8, !tbaa !22
  %106 = load ptr, ptr %22, align 8, !tbaa !22
  %107 = icmp eq ptr %105, %106
  br i1 %107, label %108, label %109

108:                                              ; preds = %104
  store i32 2, ptr %14, align 4, !tbaa !20
  store i32 2, ptr %24, align 4
  br label %110

109:                                              ; preds = %104
  store i32 0, ptr %24, align 4
  br label %110

110:                                              ; preds = %108, %109
  call void @llvm.lifetime.end.p0(i64 8, ptr %22) #13
  %111 = load i32, ptr %24, align 4
  switch i32 %111, label %197 [
    i32 0, label %112
    i32 2, label %195
  ]

112:                                              ; preds = %110
  br label %147

113:                                              ; preds = %59
  call void @llvm.lifetime.start.p0(i64 8, ptr %25) #13
  call void @llvm.lifetime.start.p0(i64 8, ptr %26) #13
  %114 = load ptr, ptr %15, align 8, !tbaa !9
  %115 = call i64 @je_malloc_strtoumax(ptr noundef %114, ptr noundef null, i32 noundef 10)
  store i64 %115, ptr %25, align 8, !tbaa !14
  %116 = load i64, ptr %25, align 8, !tbaa !14
  %117 = icmp eq i64 %116, -1
  br i1 %117, label %121, label %118

118:                                              ; preds = %113
  %119 = load i64, ptr %25, align 8, !tbaa !14
  %120 = icmp ugt i64 %119, -1
  br i1 %120, label %121, label %122

121:                                              ; preds = %118, %113
  store i32 2, ptr %14, align 4, !tbaa !20
  store i32 2, ptr %24, align 4
  br label %144

122:                                              ; preds = %118
  %123 = load ptr, ptr %21, align 8, !tbaa !22
  %124 = getelementptr inbounds nuw %struct.ctl_named_node_s, ptr %123, i32 0, i32 3
  %125 = load ptr, ptr %124, align 8, !tbaa !48
  %126 = call ptr @ctl_indexed_node(ptr noundef %125)
  store ptr %126, ptr %26, align 8, !tbaa !52
  %127 = load ptr, ptr %26, align 8, !tbaa !52
  %128 = getelementptr inbounds nuw %struct.ctl_indexed_node_s, ptr %127, i32 0, i32 1
  %129 = load ptr, ptr %128, align 8, !tbaa !54
  %130 = load ptr, ptr %8, align 8, !tbaa !28
  %131 = load ptr, ptr %12, align 8, !tbaa !12
  %132 = load ptr, ptr %13, align 8, !tbaa !12
  %133 = load i64, ptr %132, align 8, !tbaa !14
  %134 = load i64, ptr %25, align 8, !tbaa !14
  %135 = call ptr %129(ptr noundef %130, ptr noundef %131, i64 noundef %133, i64 noundef %134)
  store ptr %135, ptr %21, align 8, !tbaa !22
  %136 = load ptr, ptr %21, align 8, !tbaa !22
  %137 = icmp eq ptr %136, null
  br i1 %137, label %138, label %139

138:                                              ; preds = %122
  store i32 2, ptr %14, align 4, !tbaa !20
  store i32 2, ptr %24, align 4
  br label %144

139:                                              ; preds = %122
  %140 = load i64, ptr %25, align 8, !tbaa !14
  %141 = load ptr, ptr %12, align 8, !tbaa !12
  %142 = load i64, ptr %19, align 8, !tbaa !14
  %143 = getelementptr inbounds nuw i64, ptr %141, i64 %142
  store i64 %140, ptr %143, align 8, !tbaa !14
  store i32 0, ptr %24, align 4
  br label %144

144:                                              ; preds = %138, %121, %139
  call void @llvm.lifetime.end.p0(i64 8, ptr %26) #13
  call void @llvm.lifetime.end.p0(i64 8, ptr %25) #13
  %145 = load i32, ptr %24, align 4
  switch i32 %145, label %197 [
    i32 0, label %146
    i32 2, label %195
  ]

146:                                              ; preds = %144
  br label %147

147:                                              ; preds = %146, %112
  %148 = load ptr, ptr %21, align 8, !tbaa !22
  %149 = getelementptr inbounds nuw %struct.ctl_named_node_s, ptr %148, i32 0, i32 4
  %150 = load ptr, ptr %149, align 8, !tbaa !24
  %151 = icmp ne ptr %150, null
  br i1 %151, label %157, label %152

152:                                              ; preds = %147
  %153 = load ptr, ptr %17, align 8, !tbaa !9
  %154 = load i8, ptr %153, align 1, !tbaa !56
  %155 = sext i8 %154 to i32
  %156 = icmp eq i32 %155, 0
  br i1 %156, label %157, label %167

157:                                              ; preds = %152, %147
  %158 = load ptr, ptr %17, align 8, !tbaa !9
  %159 = load i8, ptr %158, align 1, !tbaa !56
  %160 = sext i8 %159 to i32
  %161 = icmp ne i32 %160, 0
  br i1 %161, label %162, label %163

162:                                              ; preds = %157
  store i32 2, ptr %14, align 4, !tbaa !20
  br label %195

163:                                              ; preds = %157
  %164 = load i64, ptr %19, align 8, !tbaa !14
  %165 = add i64 %164, 1
  %166 = load ptr, ptr %13, align 8, !tbaa !12
  store i64 %165, ptr %166, align 8, !tbaa !14
  br label %188

167:                                              ; preds = %152
  %168 = load ptr, ptr %17, align 8, !tbaa !9
  %169 = getelementptr inbounds i8, ptr %168, i64 1
  store ptr %169, ptr %15, align 8, !tbaa !9
  %170 = load ptr, ptr %15, align 8, !tbaa !9
  %171 = call ptr @strchr(ptr noundef %170, i32 noundef 46) #14
  store ptr %171, ptr %16, align 8, !tbaa !9
  %172 = icmp ne ptr %171, null
  br i1 %172, label %173, label %175

173:                                              ; preds = %167
  %174 = load ptr, ptr %16, align 8, !tbaa !9
  br label %178

175:                                              ; preds = %167
  %176 = load ptr, ptr %15, align 8, !tbaa !9
  %177 = call ptr @strchr(ptr noundef %176, i32 noundef 0) #14
  br label %178

178:                                              ; preds = %175, %173
  %179 = phi ptr [ %174, %173 ], [ %177, %175 ]
  store ptr %179, ptr %17, align 8, !tbaa !9
  %180 = load ptr, ptr %17, align 8, !tbaa !9
  %181 = ptrtoint ptr %180 to i64
  %182 = load ptr, ptr %15, align 8, !tbaa !9
  %183 = ptrtoint ptr %182 to i64
  %184 = sub i64 %181, %183
  store i64 %184, ptr %18, align 8, !tbaa !14
  br label %185

185:                                              ; preds = %178
  %186 = load i64, ptr %19, align 8, !tbaa !14
  %187 = add i64 %186, 1
  store i64 %187, ptr %19, align 8, !tbaa !14
  br label %48, !llvm.loop !57

188:                                              ; preds = %163, %48
  %189 = load ptr, ptr %11, align 8, !tbaa !46
  %190 = icmp ne ptr %189, null
  br i1 %190, label %191, label %194

191:                                              ; preds = %188
  %192 = load ptr, ptr %21, align 8, !tbaa !22
  %193 = load ptr, ptr %11, align 8, !tbaa !46
  store ptr %192, ptr %193, align 8, !tbaa !22
  br label %194

194:                                              ; preds = %191, %188
  store i32 0, ptr %14, align 4, !tbaa !20
  br label %195

195:                                              ; preds = %194, %144, %110, %162, %45
  %196 = load i32, ptr %14, align 4, !tbaa !20
  store i32 %196, ptr %7, align 4
  store i32 1, ptr %24, align 4
  br label %197

197:                                              ; preds = %195, %144, %110
  call void @llvm.lifetime.end.p0(i64 8, ptr %21) #13
  call void @llvm.lifetime.end.p0(i64 8, ptr %20) #13
  call void @llvm.lifetime.end.p0(i64 8, ptr %19) #13
  call void @llvm.lifetime.end.p0(i64 8, ptr %18) #13
  call void @llvm.lifetime.end.p0(i64 8, ptr %17) #13
  call void @llvm.lifetime.end.p0(i64 8, ptr %16) #13
  call void @llvm.lifetime.end.p0(i64 8, ptr %15) #13
  call void @llvm.lifetime.end.p0(i64 4, ptr %14) #13
  %198 = load i32, ptr %7, align 4
  ret i32 %198

199:                                              ; preds = %98
  unreachable
}